	.build_version macos, 13, 0
	.file	1 "/opt/homebrew/Cellar/zig/0.15.1/lib/zig/std" "builtin.zig"
	.file	2 "/Users/nish7/.cache/zig/b/0d432dde63c6dfd9866596742b993026" "builtin.zig"
	.file	3 "/opt/homebrew/Cellar/zig/0.15.1/lib/zig/std" "start.zig"
	.file	4 "/opt/homebrew/Cellar/zig/0.15.1/lib/zig/std" "Target.zig"
	.file	5 "/opt/homebrew/Cellar/zig/0.15.1/lib/zig/std/Target" "aarch64.zig"
	.section	__TEXT,__text,regular,pure_instructions
	.globl	_push_const_stencil
	.p2align	2
_push_const_stencil:
Lfunc_begin0:
	.file	6 "/Users/nish7/Code/mini-CnP/src" "stencils.zig"
	.loc	6 16 0
	.cfi_startproc
	stp	x29, x30, [sp, #-16]!
	.cfi_def_cfa_offset 16
	mov	x29, sp
	.cfi_def_cfa w29, 16
	.cfi_offset w30, -8
	.cfi_offset w29, -16
Ltmp0:
	.loc	6 19 18 prologue_end
	ldr	x8, [x0, #2048]
	mov	x9, #1229782938247303441
	.loc	6 19 14 is_stmt 0
	str	x9, [x0, x8, lsl #3]
	.loc	6 20 8 is_stmt 1
	ldr	x8, [x0, #2048]
	.loc	6 20 12 is_stmt 0
	add	x8, x8, #1
	str	x8, [x0, #2048]
	.cfi_def_cfa wsp, 16
	.loc	6 20 12 epilogue_begin
	ldp	x29, x30, [sp], #16
	.cfi_def_cfa_offset 0
	.cfi_restore w30
	.cfi_restore w29
	ret
Ltmp1:
Lfunc_end0:
	.cfi_endproc

	.globl	_add_stencil
	.p2align	2
_add_stencil:
Lfunc_begin1:
	.loc	6 24 0 is_stmt 1
	.cfi_startproc
	stp	x29, x30, [sp, #-16]!
	.cfi_def_cfa_offset 16
	mov	x29, sp
	.cfi_def_cfa w29, 16
	.cfi_offset w30, -8
	.cfi_offset w29, -16
Ltmp2:
	.loc	6 27 8 prologue_end
	ldr	x8, [x0, #2048]
	.loc	6 27 12 is_stmt 0
	sub	x9, x8, #1
	str	x9, [x0, #2048]
	.loc	6 28 24 is_stmt 1
	ldr	x9, [x0, x9, lsl #3]
Ltmp3:
	.loc	6 29 12
	sub	x8, x8, #2
	str	x8, [x0, #2048]
	.loc	6 30 24
	ldr	x10, [x0, x8, lsl #3]
Ltmp4:
	.loc	6 31 27
	add	x9, x10, x9
Ltmp5:
	str	x9, [x0, x8, lsl #3]
	.loc	6 32 8
	ldr	x8, [x0, #2048]
	.loc	6 32 12 is_stmt 0
	add	x8, x8, #1
	str	x8, [x0, #2048]
	.cfi_def_cfa wsp, 16
	.loc	6 32 12 epilogue_begin
	ldp	x29, x30, [sp], #16
	.cfi_def_cfa_offset 0
	.cfi_restore w30
	.cfi_restore w29
	ret
Ltmp6:
Lfunc_end1:
	.cfi_endproc

	.globl	_sub_stencil
	.p2align	2
_sub_stencil:
Lfunc_begin2:
	.loc	6 36 0 is_stmt 1
	.cfi_startproc
	stp	x29, x30, [sp, #-16]!
	.cfi_def_cfa_offset 16
	mov	x29, sp
	.cfi_def_cfa w29, 16
	.cfi_offset w30, -8
	.cfi_offset w29, -16
Ltmp7:
	.loc	6 37 8 prologue_end
	ldr	x8, [x0, #2048]
	.loc	6 37 12 is_stmt 0
	sub	x9, x8, #1
	str	x9, [x0, #2048]
	.loc	6 38 24 is_stmt 1
	ldr	x9, [x0, x9, lsl #3]
Ltmp8:
	.loc	6 39 12
	sub	x8, x8, #2
	str	x8, [x0, #2048]
	.loc	6 40 24
	ldr	x10, [x0, x8, lsl #3]
Ltmp9:
	.loc	6 41 27
	sub	x9, x10, x9
Ltmp10:
	str	x9, [x0, x8, lsl #3]
	.loc	6 42 8
	ldr	x8, [x0, #2048]
	.loc	6 42 12 is_stmt 0
	add	x8, x8, #1
	str	x8, [x0, #2048]
	.cfi_def_cfa wsp, 16
	.loc	6 42 12 epilogue_begin
	ldp	x29, x30, [sp], #16
	.cfi_def_cfa_offset 0
	.cfi_restore w30
	.cfi_restore w29
	ret
Ltmp11:
Lfunc_end2:
	.cfi_endproc

	.globl	_mul_stencil
	.p2align	2
_mul_stencil:
Lfunc_begin3:
	.loc	6 46 0 is_stmt 1
	.cfi_startproc
	stp	x29, x30, [sp, #-16]!
	.cfi_def_cfa_offset 16
	mov	x29, sp
	.cfi_def_cfa w29, 16
	.cfi_offset w30, -8
	.cfi_offset w29, -16
Ltmp12:
	.loc	6 47 8 prologue_end
	ldr	x8, [x0, #2048]
	.loc	6 47 12 is_stmt 0
	sub	x9, x8, #1
	str	x9, [x0, #2048]
	.loc	6 48 24 is_stmt 1
	ldr	x9, [x0, x9, lsl #3]
Ltmp13:
	.loc	6 49 12
	sub	x8, x8, #2
	str	x8, [x0, #2048]
	.loc	6 50 24
	ldr	x10, [x0, x8, lsl #3]
Ltmp14:
	.loc	6 51 27
	mul	x9, x10, x9
Ltmp15:
	str	x9, [x0, x8, lsl #3]
	.loc	6 52 8
	ldr	x8, [x0, #2048]
	.loc	6 52 12 is_stmt 0
	add	x8, x8, #1
	str	x8, [x0, #2048]
	.cfi_def_cfa wsp, 16
	.loc	6 52 12 epilogue_begin
	ldp	x29, x30, [sp], #16
	.cfi_def_cfa_offset 0
	.cfi_restore w30
	.cfi_restore w29
	ret
Ltmp16:
Lfunc_end3:
	.cfi_endproc

	.globl	_div_stencil
	.p2align	2
_div_stencil:
Lfunc_begin4:
	.loc	6 56 0 is_stmt 1
	.cfi_startproc
	stp	x29, x30, [sp, #-16]!
	.cfi_def_cfa_offset 16
	mov	x29, sp
	.cfi_def_cfa w29, 16
	.cfi_offset w30, -8
	.cfi_offset w29, -16
Ltmp17:
	.loc	6 57 8 prologue_end
	ldr	x8, [x0, #2048]
	.loc	6 57 12 is_stmt 0
	sub	x9, x8, #1
	str	x9, [x0, #2048]
	.loc	6 58 24 is_stmt 1
	ldr	x9, [x0, x9, lsl #3]
Ltmp18:
	.loc	6 59 12
	sub	x8, x8, #2
	str	x8, [x0, #2048]
Ltmp19:
	.loc	6 61 9
	cbz	x9, LBB4_2
Ltmp20:
	.loc	6 60 24
	ldr	x10, [x0, x8, lsl #3]
Ltmp21:
	.loc	6 62 29
	sdiv	x9, x10, x9
Ltmp22:
LBB4_2:
	.loc	6 0 0 is_stmt 0
	str	x9, [x0, x8, lsl #3]
Ltmp23:
	.loc	6 66 8 is_stmt 1
	ldr	x8, [x0, #2048]
	.loc	6 66 12 is_stmt 0
	add	x8, x8, #1
	str	x8, [x0, #2048]
	.cfi_def_cfa wsp, 16
	.loc	6 66 12 epilogue_begin
	ldp	x29, x30, [sp], #16
	.cfi_def_cfa_offset 0
	.cfi_restore w30
	.cfi_restore w29
	ret
Ltmp24:
Lfunc_end4:
	.cfi_endproc

	.globl	_neg_stencil
	.p2align	2
_neg_stencil:
Lfunc_begin5:
	.loc	6 70 0 is_stmt 1
	.cfi_startproc
	stp	x29, x30, [sp, #-16]!
	.cfi_def_cfa_offset 16
	mov	x29, sp
	.cfi_def_cfa w29, 16
	.cfi_offset w30, -8
	.cfi_offset w29, -16
Ltmp25:
	.loc	6 71 8 prologue_end
	ldr	x8, [x0, #2048]
	.loc	6 71 12 is_stmt 0
	sub	x8, x8, #1
	str	x8, [x0, #2048]
	.loc	6 72 24 is_stmt 1
	ldr	x9, [x0, x8, lsl #3]
Ltmp26:
	.loc	6 73 14
	neg	x9, x9
Ltmp27:
	str	x9, [x0, x8, lsl #3]
	.loc	6 74 8
	ldr	x8, [x0, #2048]
	.loc	6 74 12 is_stmt 0
	add	x8, x8, #1
	str	x8, [x0, #2048]
	.cfi_def_cfa wsp, 16
	.loc	6 74 12 epilogue_begin
	ldp	x29, x30, [sp], #16
	.cfi_def_cfa_offset 0
	.cfi_restore w30
	.cfi_restore w29
	ret
Ltmp28:
Lfunc_end5:
	.cfi_endproc

	.globl	_pop_return_stencil
	.p2align	2
_pop_return_stencil:
Lfunc_begin6:
	.loc	6 79 0 is_stmt 1
	.cfi_startproc
	stp	x29, x30, [sp, #-16]!
	.cfi_def_cfa_offset 16
	mov	x29, sp
	.cfi_def_cfa w29, 16
	.cfi_offset w30, -8
	.cfi_offset w29, -16
Ltmp29:
	.loc	6 80 8 prologue_end
	ldr	x8, [x0, #2048]
	.loc	6 80 12 is_stmt 0
	sub	x8, x8, #1
	str	x8, [x0, #2048]
	.loc	6 81 21 is_stmt 1
	ldr	x0, [x0, x8, lsl #3]
Ltmp30:
	.cfi_def_cfa wsp, 16
	.loc	6 81 5 epilogue_begin is_stmt 0
	ldp	x29, x30, [sp], #16
	.cfi_def_cfa_offset 0
	.cfi_restore w30
	.cfi_restore w29
	ret
Ltmp31:
Lfunc_end6:
	.cfi_endproc
